; Function Attrs: nounwind uwtable
define dso_local void @AutoVacuumUpdateCostLimit() local_unnamed_addr #4 {
  %1 = load ptr, ptr @MyWorkerInfo, align 8
  %.not = icmp eq ptr %1, null
  br i1 %.not, label %22, label %2

2:                                                ; preds = %0
  %3 = load i32, ptr @av_storage_param_cost_limit, align 4
  %4 = icmp sgt i32 %3, 0
  br i1 %4, label %.sink.split, label %5

5:                                                ; preds = %2
  %6 = load i32, ptr @autovacuum_vac_cost_limit, align 4
  %7 = icmp sgt i32 %6, 0
  %8 = load i32, ptr @VacuumCostLimit, align 4
  %storemerge = select i1 %7, i32 %6, i32 %8
  store i32 %storemerge, ptr @vacuum_cost_limit, align 4
  %9 = getelementptr inbounds nuw i8, ptr %1, i64 40
  %10 = load volatile i8, ptr %9, align 1
  %11 = icmp eq i8 %10, 0
  br i1 %11, label %22, label %12

12:                                               ; preds = %5
  %13 = load ptr, ptr @AutoVacuumShmem, align 8
  %14 = getelementptr inbounds nuw i8, ptr %13, i64 5184
  %15 = load volatile i32, ptr %14, align 4
  %16 = icmp slt i32 %15, 1
  br i1 %16, label %17, label %20

17:                                               ; preds = %12
  %18 = tail call zeroext i1 @errstart_cold(i32 noundef 21, ptr noundef null) #23
  tail call void @llvm.assume(i1 %18)
  %19 = tail call i32 (ptr, ...) @errmsg_internal(ptr noundef nonnull @.str.24) #18
  tail call void @errfinish(ptr noundef nonnull @.str.1, i32 noundef 1752, ptr noundef nonnull @__func__.AutoVacuumUpdateCostLimit) #18
  unreachable

20:                                               ; preds = %12
  %21 = sdiv i32 %storemerge, %15
  %spec.select = tail call i32 @llvm.smax.i32(i32 %21, i32 1)
  br label %.sink.split

.sink.split:                                      ; preds = %2, %20
  %spec.select.sink = phi i32 [ %spec.select, %20 ], [ %3, %2 ]
  store i32 %spec.select.sink, ptr @vacuum_cost_limit, align 4
  br label %22

22:                                               ; preds = %.sink.split, %5, %0
  ret void
}